target datalayout = "e-m:e-p270:32:32-p271:32:32-p272:64:64-i64:64-i128:128-f80:128-n8:16:32:64-S128"
target triple = "x86_64-pc-linux-gnu"

@hf_rtcp_pt = internal global i32 0, align 4
@hf_rtcp_length = internal global i32 0, align 4
@hf_rtcp_ssrc_sender = internal global i32 0, align 4
@hf_rtcp_ssrc_media_source = internal global i32 0, align 4
@hf_rtcp_rtpfb_fmt = internal global i32 0, align 4
@.str.915 = private unnamed_addr constant [12 x i8] c" (%u bytes)\00", align 1

; Function Attrs: null_pointer_is_valid sspstrong uwtable
define internal i32 @dissect_rtcp_length_field(ptr noundef %0, ptr noundef %1, i32 noundef %2) #0 {
  %4 = alloca ptr, align 8
  %5 = alloca ptr, align 8
  %6 = alloca i32, align 4
  %7 = alloca ptr, align 8
  %8 = alloca i16, align 2
  store ptr %0, ptr %4, align 8
  store ptr %1, ptr %5, align 8
  store i32 %2, ptr %6, align 4
  call void @llvm.lifetime.start.p0(i64 8, ptr %7) #9
  call void @llvm.lifetime.start.p0(i64 2, ptr %8) #9
  %9 = load ptr, ptr %5, align 8
  %10 = load i32, ptr %6, align 4
  %11 = call zeroext i16 @tvb_get_ntohs(ptr noundef %9, i32 noundef %10)
  store i16 %11, ptr %8, align 2
  %12 = load ptr, ptr %4, align 8
  %13 = load i32, ptr @hf_rtcp_length, align 4
  %14 = load ptr, ptr %5, align 8
  %15 = load i32, ptr %6, align 4
  %16 = call ptr @proto_tree_add_item(ptr noundef %12, i32 noundef %13, ptr noundef %14, i32 noundef %15, i32 noundef 2, i32 noundef 0)
  store ptr %16, ptr %7, align 8
  %17 = load ptr, ptr %7, align 8
  %18 = load i16, ptr %8, align 2
  %19 = zext i16 %18 to i32
  %20 = add i32 %19, 1
  %21 = mul i32 %20, 4
  call void (ptr, ptr, ...) @proto_item_append_text(ptr noundef %17, ptr noundef @.str.915, i32 noundef %21)
  %22 = load i32, ptr %6, align 4
  %23 = add i32 %22, 2
  store i32 %23, ptr %6, align 4
  %24 = load i32, ptr %6, align 4
  call void @llvm.lifetime.end.p0(i64 2, ptr %8) #9
  call void @llvm.lifetime.end.p0(i64 8, ptr %7) #9
  ret i32 %24
}

; Function Attrs: null_pointer_is_valid sspstrong uwtable
define internal i32 @dissect_rtcp_rtpfb_header(ptr noundef %0, i32 noundef %1, ptr noundef %2) #0 {
  %4 = alloca ptr, align 8
  %5 = alloca i32, align 4
  %6 = alloca ptr, align 8
  store ptr %0, ptr %4, align 8
  store i32 %1, ptr %5, align 4
  store ptr %2, ptr %6, align 8
  %7 = load ptr, ptr %6, align 8
  %8 = load i32, ptr @hf_rtcp_rtpfb_fmt, align 4
  %9 = load ptr, ptr %4, align 8
  %10 = load i32, ptr %5, align 4
  %11 = call ptr @proto_tree_add_item(ptr noundef %7, i32 noundef %8, ptr noundef %9, i32 noundef %10, i32 noundef 1, i32 noundef 0)
  %12 = load i32, ptr %5, align 4
  %13 = add i32 %12, 1
  store i32 %13, ptr %5, align 4
  %14 = load ptr, ptr %6, align 8
  %15 = load i32, ptr @hf_rtcp_pt, align 4
  %16 = load ptr, ptr %4, align 8
  %17 = load i32, ptr %5, align 4
  %18 = call ptr @proto_tree_add_item(ptr noundef %14, i32 noundef %15, ptr noundef %16, i32 noundef %17, i32 noundef 1, i32 noundef 0)
  %19 = load i32, ptr %5, align 4
  %20 = add i32 %19, 1
  store i32 %20, ptr %5, align 4
  %21 = load ptr, ptr %6, align 8
  %22 = load ptr, ptr %4, align 8
  %23 = load i32, ptr %5, align 4
  %24 = call i32 @dissect_rtcp_length_field(ptr noundef %21, ptr noundef %22, i32 noundef %23)
  store i32 %24, ptr %5, align 4
  %25 = load ptr, ptr %6, align 8
  %26 = load i32, ptr @hf_rtcp_ssrc_sender, align 4
  %27 = load ptr, ptr %4, align 8
  %28 = load i32, ptr %5, align 4
  %29 = call ptr @proto_tree_add_item(ptr noundef %25, i32 noundef %26, ptr noundef %27, i32 noundef %28, i32 noundef 4, i32 noundef 0)
  %30 = load i32, ptr %5, align 4
  %31 = add i32 %30, 4
  store i32 %31, ptr %5, align 4
  %32 = load i32, ptr %5, align 4
  ret i32 %32
}

; Function Attrs: null_pointer_is_valid sspstrong uwtable
define internal i32 @dissect_rtcp_rtpfb_tmmbn(ptr noundef %0, ptr noundef %1, ptr noundef %2, ptr noundef %3) #0 {
  %5 = alloca ptr, align 8
  %6 = alloca ptr, align 8
  %7 = alloca ptr, align 8
  %8 = alloca ptr, align 8
  %9 = alloca i32, align 4
  %10 = alloca ptr, align 8
  %11 = alloca i32, align 4
  %12 = alloca i32, align 4
  store ptr %0, ptr %5, align 8
  store ptr %1, ptr %6, align 8
  store ptr %2, ptr %7, align 8
  store ptr %3, ptr %8, align 8
  call void @llvm.lifetime.start.p0(i64 4, ptr %9) #9
  store i32 0, ptr %9, align 4
  call void @llvm.lifetime.start.p0(i64 8, ptr %10) #9
  %13 = load ptr, ptr %7, align 8
  %14 = call ptr @proto_tree_get_parent(ptr noundef %13)
  store ptr %14, ptr %10, align 8
  call void @llvm.lifetime.start.p0(i64 4, ptr %11) #9
  %15 = load ptr, ptr %5, align 8
  %16 = load i32, ptr %9, align 4
  %17 = add i32 %16, 2
  %18 = call zeroext i16 @tvb_get_uint16(ptr noundef %15, i32 noundef %17, i32 noundef 0)
  %19 = zext i16 %18 to i32
  %20 = add i32 %19, 1
  %21 = mul i32 %20, 4
  store i32 %21, ptr %11, align 4
  %22 = load ptr, ptr %5, align 8
  %23 = load i32, ptr %9, align 4
  %24 = load ptr, ptr %7, align 8
  %25 = call i32 @dissect_rtcp_rtpfb_header(ptr noundef %22, i32 noundef %23, ptr noundef %24)
  store i32 %25, ptr %9, align 4
  %26 = load ptr, ptr %7, align 8
  %27 = load i32, ptr @hf_rtcp_ssrc_media_source, align 4
  %28 = load ptr, ptr %5, align 8
  %29 = load i32, ptr %9, align 4
  %30 = call ptr @proto_tree_add_item(ptr noundef %26, i32 noundef %27, ptr noundef %28, i32 noundef %29, i32 noundef 4, i32 noundef 0)
  %31 = load i32, ptr %9, align 4
  %32 = add i32 %31, 4
  store i32 %32, ptr %9, align 4
  call void @llvm.lifetime.start.p0(i64 4, ptr %12) #9
  store i32 0, ptr %12, align 4
  br label %33

33:                                               ; preds = %37, %4
  %34 = load i32, ptr %9, align 4
  %35 = load i32, ptr %11, align 4
  %36 = icmp slt i32 %34, %35
  br i1 %36, label %37, label %46

37:                                               ; preds = %33
  %38 = load i32, ptr %12, align 4
  %39 = add i32 %38, 1
  store i32 %39, ptr %12, align 4
  %40 = load ptr, ptr %5, align 8
  %41 = load i32, ptr %9, align 4
  %42 = load ptr, ptr %7, align 8
  %43 = load ptr, ptr %10, align 8
  %44 = load i32, ptr %12, align 4
  %45 = call i32 @dissect_rtcp_rtpfb_tmmbr_tmmbn_fci(ptr noundef %40, i32 noundef %41, ptr noundef %42, ptr noundef %43, i32 noundef %44, i1 noundef zeroext true)
  store i32 %45, ptr %9, align 4
  br label %33, !llvm.loop !40

46:                                               ; preds = %33
  %47 = load i32, ptr %9, align 4
  call void @llvm.lifetime.end.p0(i64 4, ptr %12) #9
  call void @llvm.lifetime.end.p0(i64 4, ptr %11) #9
  call void @llvm.lifetime.end.p0(i64 8, ptr %10) #9
  call void @llvm.lifetime.end.p0(i64 4, ptr %9) #9
  ret i32 %47
}